(lp0
(I398
I178
tp1
a(I231
I191
tp2
a(I284
I280
tp3
a(I284
I40
tp4
a(I40
I160
tp5
a(I65
I149
tp6
a(I93
I124
tp7
a(I316
I64
tp8
a(I406
I220
tp9
a(I98
I270
tp10
a(I231
I191
tp11
a(I141
I233
tp12
a(I406
I220
tp13
a(I162
I100
tp14
a(I375
I211
tp15
a(I316
I64
tp16
a(I181
I50
tp17
a(I65
I149
tp18
a(I406
I220
tp19
a(I284
I40
tp20
a(I162
I220
tp21
a(I528
I280
tp22
a(I40
I280
tp23
a(I375
I211
tp24
a(I40
I280
tp25
a(I98
I270
tp26
a(I528
I280
tp27
a.